target datalayout = "e-m:e-p270:32:32-p271:32:32-p272:64:64-i64:64-i128:128-f80:128-n8:16:32:64-S128"
target triple = "x86_64-unknown-linux-gnu"

%"class.std::__shared_ptr.57" = type { ptr, %"class.std::__shared_count" }
%"class.std::__shared_count" = type { ptr }
%"struct.folly::c_array" = type { [20 x i64] }
%"struct.folly::c_array.184" = type { [100 x i16] }
%"class.std::__shared_ptr" = type { ptr, %"class.std::__shared_count" }
%"class.std::__cxx11::basic_string" = type { %"struct.std::__cxx11::basic_string<char>::_Alloc_hider", i64, %union.anon }
%"struct.std::__cxx11::basic_string<char>::_Alloc_hider" = type { ptr }
%union.anon = type { i64, [8 x i8] }

@.str.15 = private unnamed_addr constant [2 x i8] c"\22\00", align 1
@_ZN5folly6detail15to_ascii_powersILm10EmE4dataE = external global %"struct.folly::c_array", align 8
@_ZN5folly6detail14to_ascii_tableILm10ENS_17to_ascii_alphabetILb0EEEE4dataE = external global %"struct.folly::c_array.184", align 2

; Function Attrs: mustprogress uwtable
define linkonce_odr noundef i64 @_ZN5folly13to_ascii_withILm10ENS_17to_ascii_alphabetILb0EEELm20EEEmRAT1__cm(ptr noundef nonnull align 1 dereferenceable(20) %out, i64 noundef %v) #0 comdat {
entry:
  %retval.i = alloca i64, align 8
  %v.addr.i7 = alloca i64, align 8
  %i.i = alloca i64, align 8
  %out.addr.i5 = alloca ptr, align 8
  %size.addr.i = alloca i64, align 8
  %v.addr.i6 = alloca i64, align 8
  %pos.i = alloca i64, align 8
  %q.i = alloca i64, align 8
  %r.i = alloca i64, align 8
  %val.i = alloca i16, align 2
  %val1.i = alloca i16, align 2
  %v.addr.i4 = alloca i64, align 8
  %out.addr.i1 = alloca ptr, align 8
  %v.addr.i2 = alloca i64, align 8
  %size.i = alloca i64, align 8
  %out.addr.i = alloca ptr, align 8
  %v.addr.i = alloca i64, align 8
  %out.addr = alloca ptr, align 8
  %v.addr = alloca i64, align 8
  store ptr %out, ptr %out.addr, align 8
  store i64 %v, ptr %v.addr, align 8
  %0 = load ptr, ptr %out.addr, align 8
  %1 = load i64, ptr %v.addr, align 8
  store ptr %0, ptr %out.addr.i, align 8
  store i64 %1, ptr %v.addr.i, align 8
  %2 = load ptr, ptr %out.addr.i, align 8
  %3 = load i64, ptr %v.addr.i, align 8
  store ptr %2, ptr %out.addr.i1, align 8
  store i64 %3, ptr %v.addr.i2, align 8
  %4 = load i64, ptr %v.addr.i2, align 8
  store i64 %4, ptr %v.addr.i4, align 8
  %5 = load i64, ptr %v.addr.i4, align 8
  store i64 %5, ptr %v.addr.i7, align 8
  store i64 0, ptr %i.i, align 8
  br label %for.cond.i

for.cond.i:                                       ; preds = %if.end.i, %entry
  %6 = load i64, ptr %i.i, align 8
  %cmp.i8 = icmp ult i64 %6, 20
  br i1 %cmp.i8, label %for.body.i, label %for.end.i

for.body.i:                                       ; preds = %for.cond.i
  %7 = load i64, ptr %v.addr.i7, align 8
  %8 = load i64, ptr %i.i, align 8
  %arrayidx.i9 = getelementptr inbounds [20 x i64], ptr @_ZN5folly6detail15to_ascii_powersILm10EmE4dataE, i64 0, i64 %8
  %9 = load i64, ptr %arrayidx.i9, align 8
  %cmp1.i = icmp ult i64 %7, %9
  br i1 %cmp1.i, label %if.then.i10, label %if.end.i

if.then.i10:                                      ; preds = %for.body.i
  %10 = load i64, ptr %i.i, align 8
  %11 = load i64, ptr %i.i, align 8
  %cmp2.i = icmp eq i64 %11, 0
  %conv.i11 = zext i1 %cmp2.i to i64
  %add.i = add i64 %10, %conv.i11
  store i64 %add.i, ptr %retval.i, align 8
  br label %_ZN5folly6detail19to_ascii_size_arrayILm10EEEmm.exit

if.end.i:                                         ; preds = %for.body.i
  %12 = load i64, ptr %i.i, align 8
  %inc.i = add i64 %12, 1
  store i64 %inc.i, ptr %i.i, align 8
  br label %for.cond.i, !llvm.loop !29

for.end.i:                                        ; preds = %for.cond.i
  store i64 20, ptr %retval.i, align 8
  br label %_ZN5folly6detail19to_ascii_size_arrayILm10EEEmm.exit

_ZN5folly6detail19to_ascii_size_arrayILm10EEEmm.exit: ; preds = %for.end.i, %if.then.i10
  %13 = load i64, ptr %retval.i, align 8
  store i64 %13, ptr %size.i, align 8
  %14 = load ptr, ptr %out.addr.i1, align 8
  %15 = load i64, ptr %size.i, align 8
  %16 = load i64, ptr %v.addr.i2, align 8
  store ptr %14, ptr %out.addr.i5, align 8
  store i64 %15, ptr %size.addr.i, align 8
  store i64 %16, ptr %v.addr.i6, align 8
  %17 = load i64, ptr %size.addr.i, align 8
  store i64 %17, ptr %pos.i, align 8
  br label %while.cond.i

while.cond.i:                                     ; preds = %while.body.i, %_ZN5folly6detail19to_ascii_size_arrayILm10EEEmm.exit
  %18 = load i64, ptr %pos.i, align 8
  %cmp.i = icmp ugt i64 %18, 2
  br i1 %cmp.i, label %while.body.i, label %while.end.i

while.body.i:                                     ; preds = %while.cond.i
  %19 = load i64, ptr %pos.i, align 8
  %sub.i = sub i64 %19, 2
  store i64 %sub.i, ptr %pos.i, align 8
  %20 = load i64, ptr %v.addr.i6, align 8
  %div.i = udiv i64 %20, 100
  store i64 %div.i, ptr %q.i, align 8
  %21 = load i64, ptr %v.addr.i6, align 8
  %rem.i = urem i64 %21, 100
  store i64 %rem.i, ptr %r.i, align 8
  %22 = load i64, ptr %r.i, align 8
  %arrayidx.i = getelementptr inbounds [100 x i16], ptr @_ZN5folly6detail14to_ascii_tableILm10ENS_17to_ascii_alphabetILb0EEEE4dataE, i64 0, i64 %22
  %23 = load i16, ptr %arrayidx.i, align 2
  store i16 %23, ptr %val.i, align 2
  %24 = load ptr, ptr %out.addr.i5, align 8
  %25 = load i64, ptr %pos.i, align 8
  %add.ptr.i = getelementptr inbounds i8, ptr %24, i64 %25
  call void @llvm.memcpy.p0.p0.i64(ptr align 1 %add.ptr.i, ptr align 2 %val.i, i64 2, i1 false)
  %26 = load i64, ptr %q.i, align 8
  store i64 %26, ptr %v.addr.i6, align 8
  br label %while.cond.i, !llvm.loop !30

while.end.i:                                      ; preds = %while.cond.i
  %27 = load i64, ptr %v.addr.i6, align 8
  %arrayidx2.i = getelementptr inbounds [100 x i16], ptr @_ZN5folly6detail14to_ascii_tableILm10ENS_17to_ascii_alphabetILb0EEEE4dataE, i64 0, i64 %27
  %28 = load i16, ptr %arrayidx2.i, align 2
  store i16 %28, ptr %val1.i, align 2
  %29 = load i64, ptr %pos.i, align 8
  %cmp3.i = icmp eq i64 %29, 2
  br i1 %cmp3.i, label %if.then.i, label %if.else.i

if.then.i:                                        ; preds = %while.end.i
  %30 = load ptr, ptr %out.addr.i5, align 8
  call void @llvm.memcpy.p0.p0.i64(ptr align 1 %30, ptr align 2 %val1.i, i64 2, i1 false)
  br label %_ZN5folly6detail19to_ascii_with_tableILm10ENS_17to_ascii_alphabetILb0EEEEEvPcmm.exit

if.else.i:                                        ; preds = %while.end.i
  %31 = load i16, ptr %val1.i, align 2
  %conv.i = zext i16 %31 to i32
  %shr.i = ashr i32 %conv.i, 8
  %conv4.i = trunc i32 %shr.i to i8
  %32 = load ptr, ptr %out.addr.i5, align 8
  store i8 %conv4.i, ptr %32, align 1
  br label %_ZN5folly6detail19to_ascii_with_tableILm10ENS_17to_ascii_alphabetILb0EEEEEvPcmm.exit

_ZN5folly6detail19to_ascii_with_tableILm10ENS_17to_ascii_alphabetILb0EEEEEvPcmm.exit: ; preds = %if.else.i, %if.then.i
  %33 = load i64, ptr %size.i, align 8
  ret i64 %33
}

; Function Attrs: mustprogress uwtable
define linkonce_odr noundef i64 @_ZN5folly14to_ascii_lowerILm10ELm20EEEmRAT0__cm(ptr noundef nonnull align 1 dereferenceable(20) %out, i64 noundef %v) #0 comdat {
entry:
  %out.addr = alloca ptr, align 8
  %v.addr = alloca i64, align 8
  store ptr %out, ptr %out.addr, align 8
  store i64 %v, ptr %v.addr, align 8
  %0 = load ptr, ptr %out.addr, align 8
  %1 = load i64, ptr %v.addr, align 8
  %call = call noundef i64 @_ZN5folly13to_ascii_withILm10ENS_17to_ascii_alphabetILb0EEELm20EEEmRAT1__cm(ptr noundef nonnull align 1 dereferenceable(20) %0, i64 noundef %1)
  ret i64 %call
}

; Function Attrs: mustprogress nounwind uwtable
define linkonce_odr noundef ptr @_ZNKSt12__shared_ptrIKN8facebook5velox4TypeELN9__gnu_cxx12_Lock_policyE2EE3getEv(ptr noundef nonnull align 8 dereferenceable(16) %this) #1 comdat align 2 {
entry:
  %this.addr = alloca ptr, align 8
  store ptr %this, ptr %this.addr, align 8
  %this1 = load ptr, ptr %this.addr, align 8
  %_M_ptr = getelementptr inbounds %"class.std::__shared_ptr", ptr %this1, i32 0, i32 0
  %0 = load ptr, ptr %_M_ptr, align 8
  ret ptr %0
}

; Function Attrs: mustprogress uwtable
define linkonce_odr noundef i64 @_ZN5folly16to_ascii_decimalILm20EEEmRAT__cm(ptr noundef nonnull align 1 dereferenceable(20) %out, i64 noundef %v) #0 comdat {
entry:
  %out.addr = alloca ptr, align 8
  %v.addr = alloca i64, align 8
  store ptr %out, ptr %out.addr, align 8
  store i64 %v, ptr %v.addr, align 8
  %0 = load ptr, ptr %out.addr, align 8
  %1 = load i64, ptr %v.addr, align 8
  %call = call noundef i64 @_ZN5folly14to_ascii_lowerILm10ELm20EEEmRAT0__cm(ptr noundef nonnull align 1 dereferenceable(20) %0, i64 noundef %1)
  ret i64 %call
}

; Function Attrs: mustprogress nounwind uwtable
define linkonce_odr noundef ptr @_ZNKSt19__shared_ptr_accessIKN8facebook5velox8DateTypeELN9__gnu_cxx12_Lock_policyE2ELb0ELb0EE6_M_getEv(ptr noundef nonnull align 1 dereferenceable(1) %this) #1 comdat align 2 {
entry:
  %this.addr = alloca ptr, align 8
  store ptr %this, ptr %this.addr, align 8
  %this1 = load ptr, ptr %this.addr, align 8
  %call = call noundef ptr @_ZNKSt12__shared_ptrIKN8facebook5velox8DateTypeELN9__gnu_cxx12_Lock_policyE2EE3getEv(ptr noundef nonnull align 8 dereferenceable(16) %this1) #4
  ret ptr %call
}

; Function Attrs: mustprogress nounwind uwtable
define linkonce_odr noundef ptr @_ZNKSt19__shared_ptr_accessIKN8facebook5velox4TypeELN9__gnu_cxx12_Lock_policyE2ELb0ELb0EE6_M_getEv(ptr noundef nonnull align 1 dereferenceable(1) %this) #1 comdat align 2 {
entry:
  %this.addr = alloca ptr, align 8
  store ptr %this, ptr %this.addr, align 8
  %this1 = load ptr, ptr %this.addr, align 8
  %call = call noundef ptr @_ZNKSt12__shared_ptrIKN8facebook5velox4TypeELN9__gnu_cxx12_Lock_policyE2EE3getEv(ptr noundef nonnull align 8 dereferenceable(16) %this1) #4
  ret ptr %call
}

; Function Attrs: mustprogress uwtable
define linkonce_odr void @_ZN5folly8toAppendINSt7__cxx1112basic_stringIcSt11char_traitsIcESaIcEEElEENSt9enable_ifIXaaaaaa13is_integral_vIT0_E11is_signed_vIS8_Esr12IsSomeStringIT_EE5valuegestS8_Li4EEvE4typeES8_PS9_(i64 noundef %value, ptr noundef %result) #0 comdat {
entry:
  %value.addr = alloca i64, align 8
  %result.addr = alloca ptr, align 8
  %buffer = alloca [20 x i8], align 16
  %uvalue = alloca i64, align 8
  store i64 %value, ptr %value.addr, align 8
  store ptr %result, ptr %result.addr, align 8
  %0 = load i64, ptr %value.addr, align 8
  %cmp = icmp slt i64 %0, 0
  br i1 %cmp, label %cond.true, label %cond.false

cond.true:                                        ; preds = %entry
  %1 = load i64, ptr %value.addr, align 8
  %not = xor i64 %1, -1
  %add = add i64 %not, 1
  br label %cond.end

cond.false:                                       ; preds = %entry
  %2 = load i64, ptr %value.addr, align 8
  br label %cond.end

cond.end:                                         ; preds = %cond.false, %cond.true
  %cond = phi i64 [ %add, %cond.true ], [ %2, %cond.false ]
  store i64 %cond, ptr %uvalue, align 8
  %3 = load i64, ptr %value.addr, align 8
  %cmp1 = icmp slt i64 %3, 0
  br i1 %cmp1, label %if.then, label %if.end

if.then:                                          ; preds = %cond.end
  %4 = load ptr, ptr %result.addr, align 8
  call void @_ZNSt7__cxx1112basic_stringIcSt11char_traitsIcESaIcEE9push_backEc(ptr noundef nonnull align 8 dereferenceable(32) %4, i8 noundef signext 45)
  br label %if.end

if.end:                                           ; preds = %if.then, %cond.end
  %5 = load ptr, ptr %result.addr, align 8
  %arraydecay = getelementptr inbounds [20 x i8], ptr %buffer, i64 0, i64 0
  %6 = load i64, ptr %uvalue, align 8
  %call = call noundef i64 @_ZN5folly16to_ascii_decimalILm20EEEmRAT__cm(ptr noundef nonnull align 1 dereferenceable(20) %buffer, i64 noundef %6)
  %call2 = call noundef nonnull align 8 dereferenceable(32) ptr @_ZNSt7__cxx1112basic_stringIcSt11char_traitsIcESaIcEE6appendEPKcm(ptr noundef nonnull align 8 dereferenceable(32) %5, ptr noundef %arraydecay, i64 noundef %call)
  ret void
}

; Function Attrs: mustprogress nounwind uwtable
define linkonce_odr noundef ptr @_ZNKSt19__shared_ptr_accessIKN8facebook5velox8DateTypeELN9__gnu_cxx12_Lock_policyE2ELb0ELb0EEptEv(ptr noundef nonnull align 1 dereferenceable(1) %this) #1 comdat align 2 {
entry:
  %this.addr = alloca ptr, align 8
  store ptr %this, ptr %this.addr, align 8
  %this1 = load ptr, ptr %this.addr, align 8
  %call = call noundef ptr @_ZNKSt19__shared_ptr_accessIKN8facebook5velox8DateTypeELN9__gnu_cxx12_Lock_policyE2ELb0ELb0EE6_M_getEv(ptr noundef nonnull align 1 dereferenceable(1) %this1) #4
  ret ptr %call
}

; Function Attrs: mustprogress nounwind uwtable
define linkonce_odr noundef ptr @_ZNKSt12__shared_ptrIKN8facebook5velox8DateTypeELN9__gnu_cxx12_Lock_policyE2EE3getEv(ptr noundef nonnull align 8 dereferenceable(16) %this) #1 comdat align 2 {
entry:
  %this.addr = alloca ptr, align 8
  store ptr %this, ptr %this.addr, align 8
  %this1 = load ptr, ptr %this.addr, align 8
  %_M_ptr = getelementptr inbounds %"class.std::__shared_ptr.57", ptr %this1, i32 0, i32 0
  %0 = load ptr, ptr %_M_ptr, align 8
  ret ptr %0
}

; Function Attrs: mustprogress nounwind uwtable
define linkonce_odr noundef ptr @_ZNKSt19__shared_ptr_accessIKN8facebook5velox4TypeELN9__gnu_cxx12_Lock_policyE2ELb0ELb0EEptEv(ptr noundef nonnull align 1 dereferenceable(1) %this) #1 comdat align 2 {
entry:
  %this.addr = alloca ptr, align 8
  store ptr %this, ptr %this.addr, align 8
  %this1 = load ptr, ptr %this.addr, align 8
  %call = call noundef ptr @_ZNKSt19__shared_ptr_accessIKN8facebook5velox4TypeELN9__gnu_cxx12_Lock_policyE2ELb0ELb0EE6_M_getEv(ptr noundef nonnull align 1 dereferenceable(1) %this1) #4
  ret ptr %call
}

; Function Attrs: mustprogress uwtable
define internal void @_ZN8facebook5velox12_GLOBAL__N_117generateJsonTypedIlLb1EEEvRKNS0_12SimpleVectorIT_EEiRNSt7__cxx1112basic_stringIcSt11char_traitsIcESaIcEEERKSt10shared_ptrIKNS0_4TypeEE(ptr noundef nonnull align 8 dereferenceable(144) %input, i32 noundef %row, ptr noundef nonnull align 8 dereferenceable(32) %result, ptr noundef nonnull align 8 dereferenceable(16) %type) #0 personality ptr @__gxx_personality_v0 {
entry:
  %this.addr.i = alloca ptr, align 8
  %input.addr = alloca ptr, align 8
  %row.addr = alloca i32, align 4
  %result.addr = alloca ptr, align 8
  %type.addr = alloca ptr, align 8
  %value = alloca i64, align 8
  %ref.tmp = alloca %"class.std::__cxx11::basic_string", align 8
  %exn.slot = alloca ptr, align 8
  %ehselector.slot = alloca i32, align 4
  store ptr %input, ptr %input.addr, align 8
  store i32 %row, ptr %row.addr, align 4
  store ptr %result, ptr %result.addr, align 8
  store ptr %type, ptr %type.addr, align 8
  %0 = load ptr, ptr %input.addr, align 8
  %1 = load i32, ptr %row.addr, align 4
  %vtable = load ptr, ptr %0, align 8
  %vfn = getelementptr inbounds ptr, ptr %vtable, i64 44
  %2 = load ptr, ptr %vfn, align 8
  %call = call noundef i64 %2(ptr noundef nonnull align 8 dereferenceable(144) %0, i32 noundef %1)
  store i64 %call, ptr %value, align 8
  %3 = load ptr, ptr %result.addr, align 8
  %call1 = call noundef nonnull align 8 dereferenceable(32) ptr @_ZNSt7__cxx1112basic_stringIcSt11char_traitsIcESaIcEE6appendEPKc(ptr noundef nonnull align 8 dereferenceable(32) %3, ptr noundef @.str.15)
  %4 = load ptr, ptr %type.addr, align 8
  %call2 = call noundef ptr @_ZNKSt19__shared_ptr_accessIKN8facebook5velox4TypeELN9__gnu_cxx12_Lock_policyE2ELb0ELb0EEptEv(ptr noundef nonnull align 1 dereferenceable(1) %4) #4
  store ptr %call2, ptr %this.addr.i, align 8
  %this1.i = load ptr, ptr %this.addr.i, align 8
  %call.i9 = call noundef nonnull align 8 dereferenceable(16) ptr @_ZN8facebook5velox8DateType3getEv()
  %call2.i = call noundef ptr @_ZNKSt12__shared_ptrIKN8facebook5velox8DateTypeELN9__gnu_cxx12_Lock_policyE2EE3getEv(ptr noundef nonnull align 8 dereferenceable(16) %call.i9) #4
  %cmp.i = icmp eq ptr %this1.i, %call2.i
  br i1 %cmp.i, label %if.then, label %if.else

if.then:                                          ; preds = %entry
  %5 = load ptr, ptr %result.addr, align 8
  %call.i = call noundef nonnull align 8 dereferenceable(16) ptr @_ZN8facebook5velox8DateType3getEv()
  %call5 = call noundef ptr @_ZNKSt19__shared_ptr_accessIKN8facebook5velox8DateTypeELN9__gnu_cxx12_Lock_policyE2ELb0ELb0EEptEv(ptr noundef nonnull align 1 dereferenceable(1) %call.i) #4
  %6 = load i64, ptr %value, align 8
  %conv = trunc i64 %6 to i32
  call void @_ZNK8facebook5velox8DateType8toStringB5cxx11Ei(ptr sret(%"class.std::__cxx11::basic_string") align 8 %ref.tmp, ptr noundef nonnull align 8 dereferenceable(17) %call5, i32 noundef %conv)
  %call6 = invoke noundef nonnull align 8 dereferenceable(32) ptr @_ZNSt7__cxx1112basic_stringIcSt11char_traitsIcESaIcEE6appendERKS4_(ptr noundef nonnull align 8 dereferenceable(32) %5, ptr noundef nonnull align 8 dereferenceable(32) %ref.tmp)
          to label %invoke.cont unwind label %lpad

invoke.cont:                                      ; preds = %if.then
  call void @_ZNSt7__cxx1112basic_stringIcSt11char_traitsIcESaIcEED1Ev(ptr noundef nonnull align 8 dereferenceable(32) %ref.tmp) #4
  br label %if.end

lpad:                                             ; preds = %if.then
  %7 = landingpad { ptr, i32 }
          cleanup
  %8 = extractvalue { ptr, i32 } %7, 0
  store ptr %8, ptr %exn.slot, align 8
  %9 = extractvalue { ptr, i32 } %7, 1
  store i32 %9, ptr %ehselector.slot, align 4
  call void @_ZNSt7__cxx1112basic_stringIcSt11char_traitsIcESaIcEED1Ev(ptr noundef nonnull align 8 dereferenceable(32) %ref.tmp) #4
  br label %eh.resume

if.else:                                          ; preds = %entry
  %10 = load i64, ptr %value, align 8
  %11 = load ptr, ptr %result.addr, align 8
  call void @_ZN5folly8toAppendINSt7__cxx1112basic_stringIcSt11char_traitsIcESaIcEEElEENSt9enable_ifIXaaaaaa13is_integral_vIT0_E11is_signed_vIS8_Esr12IsSomeStringIT_EE5valuegestS8_Li4EEvE4typeES8_PS9_(i64 noundef %10, ptr noundef %11)
  br label %if.end

if.end:                                           ; preds = %if.else, %invoke.cont
  %12 = load ptr, ptr %result.addr, align 8
  %call7 = call noundef nonnull align 8 dereferenceable(32) ptr @_ZNSt7__cxx1112basic_stringIcSt11char_traitsIcESaIcEE6appendEPKc(ptr noundef nonnull align 8 dereferenceable(32) %12, ptr noundef @.str.15)
  ret void

eh.resume:                                        ; preds = %lpad
  %exn = load ptr, ptr %exn.slot, align 8
  %sel = load i32, ptr %ehselector.slot, align 4
  %lpad.val = insertvalue { ptr, i32 } poison, ptr %exn, 0
  %lpad.val8 = insertvalue { ptr, i32 } %lpad.val, i32 %sel, 1
  resume { ptr, i32 } %lpad.val8
}